; Function Attrs: mustprogress nounwind uwtable
define internal noundef zeroext i1 @_ZNK12_GLOBAL__N_118ParsedAttrInfoCold20diagAppertainsToStmtERN5clang4SemaERKNS1_10ParsedAttrEPKNS1_4StmtE(ptr nocapture nonnull readnone align 8 %0, ptr noundef nonnull align 8 dereferenceable(17560) %1, ptr noundef nonnull align 8 dereferenceable(72) %2, ptr noundef %3) unnamed_addr #0 align 2 {
  %5 = alloca %"class.clang::SemaBase::SemaDiagnosticBuilder", align 8
  %6 = alloca i8, align 1
  %7 = alloca %"class.clang::SourceLocation", align 4
  %8 = getelementptr inbounds i8, ptr %1, i64 8
  %9 = getelementptr inbounds nuw i8, ptr %2, i64 16
  %.sroa.0.0.copyload.i.i = load i32, ptr %9, align 8
  call void @_ZN5clang8SemaBase4DiagENS_14SourceLocationEjb(ptr dead_on_unwind nonnull writable sret(%"class.clang::SemaBase::SemaDiagnosticBuilder") align 8 %5, ptr noundef nonnull align 8 dereferenceable(8) %8, i32 %.sroa.0.0.copyload.i.i, i32 noundef 3258, i1 noundef zeroext false) #18
  %10 = call noundef nonnull align 8 dereferenceable(96) ptr @_ZN5clanglsINS_10ParsedAttrEEERKNS_8SemaBase21SemaDiagnosticBuilderES5_RKT_(ptr noundef nonnull align 8 dereferenceable(96) %5, ptr noundef nonnull align 8 dereferenceable(72) %2)
  %11 = getelementptr inbounds nuw i8, ptr %2, i64 28
  %12 = load i32, ptr %11, align 4
  %13 = lshr i32 %12, 25
  %14 = trunc nuw nsw i32 %13 to i8
  %15 = and i8 %14, 1
  store i8 %15, ptr %6, align 1
  %16 = call noundef nonnull align 8 dereferenceable(96) ptr @_ZNK5clang8SemaBase21SemaDiagnosticBuilderlsIbvEERKS1_OT_(ptr noundef nonnull align 8 dereferenceable(96) %10, ptr noundef nonnull align 1 dereferenceable(1) %6)
  %17 = call i32 @_ZNK5clang4Stmt11getBeginLocEv(ptr noundef nonnull align 8 dereferenceable(8) %3) #20
  store i32 %17, ptr %7, align 4
  %18 = call noundef nonnull align 8 dereferenceable(96) ptr @_ZNK5clang8SemaBase21SemaDiagnosticBuilderlsINS_14SourceLocationEvEERKS1_OT_(ptr noundef nonnull align 8 dereferenceable(96) %16, ptr noundef nonnull align 4 dereferenceable(4) %7)
  call void @_ZN5clang8SemaBase21SemaDiagnosticBuilderD1Ev(ptr noundef nonnull align 8 dereferenceable(96) %5) #18
  ret i1 false
}